; Function Attrs: mustprogress uwtable
define hidden void @_Z9drawBoxesRN2cv3MatESt6vectorINS_3dpm11DPMDetector15ObjectDetectionESaIS5_EENS_7Scalar_IdEENSt7__cxx1112basic_stringIcSt11char_traitsIcESaIcEEE(ptr noundef nonnull align 8 dereferenceable(96) %0, ptr noundef readonly captures(none) %1, ptr noundef %2, ptr noundef %3) local_unnamed_addr #7 personality ptr @__gxx_personality_v0 {
  %5 = alloca %"class.cv::_InputOutputArray", align 8
  %6 = alloca %"class.cv::_InputOutputArray", align 8
  %7 = alloca %"class.cv::Scalar_", align 8
  %8 = getelementptr inbounds nuw i8, ptr %1, i64 8
  %9 = load ptr, ptr %8, align 8, !tbaa !72
  %10 = load ptr, ptr %1, align 8, !tbaa !75
  %.not = icmp eq ptr %9, %10
  br i1 %.not, label %._crit_edge, label %.lr.ph

.lr.ph:                                           ; preds = %4
  %11 = getelementptr inbounds nuw i8, ptr %5, i64 8
  %12 = getelementptr inbounds nuw i8, ptr %5, i64 16
  br label %15

._crit_edge:                                      ; preds = %15, %4
  call void @llvm.lifetime.start.p0(i64 24, ptr nonnull %6) #20
  %13 = getelementptr inbounds nuw i8, ptr %6, i64 8
  %14 = getelementptr inbounds nuw i8, ptr %6, i64 16
  store i64 0, ptr %14, align 8
  store i32 50397184, ptr %6, align 8, !tbaa !84
  store ptr %0, ptr %13, align 8, !tbaa !87
  %.sroa.5.0..sroa_idx = getelementptr inbounds nuw i8, ptr %7, i64 16
  call void @llvm.memset.p0.i64(ptr noundef nonnull align 8 dereferenceable(16) %7, i8 0, i64 16, i1 false)
  store double 2.500000e+02, ptr %.sroa.5.0..sroa_idx, align 8, !tbaa !82
  %.sroa.6.0..sroa_idx = getelementptr inbounds nuw i8, ptr %7, i64 24
  store double 0.000000e+00, ptr %.sroa.6.0..sroa_idx, align 8, !tbaa !82
  call void @_ZN2cv7putTextERKNS_17_InputOutputArrayERKNSt7__cxx1112basic_stringIcSt11char_traitsIcESaIcEEENS_6Point_IiEEidNS_7Scalar_IdEEiib(ptr noundef nonnull align 8 dereferenceable(24) %6, ptr noundef nonnull align 8 dereferenceable(32) %3, i64 214748364810, i32 noundef 1, double noundef 2.000000e+00, ptr noundef nonnull %7, i32 noundef 2, i32 noundef 8, i1 noundef zeroext false)
  call void @llvm.lifetime.end.p0(i64 24, ptr nonnull %6) #20
  ret void

15:                                               ; preds = %.lr.ph, %15
  %16 = phi ptr [ %10, %.lr.ph ], [ %22, %15 ]
  %17 = phi i64 [ 0, %.lr.ph ], [ %20, %15 ]
  %.0710 = phi i32 [ 0, %.lr.ph ], [ %19, %15 ]
  call void @llvm.lifetime.start.p0(i64 24, ptr nonnull %5) #20
  store i64 0, ptr %12, align 8
  store i32 50397184, ptr %5, align 8, !tbaa !84
  store ptr %0, ptr %11, align 8, !tbaa !87
  %18 = getelementptr inbounds nuw %"struct.cv::dpm::DPMDetector::ObjectDetection", ptr %16, i64 %17
  %.sroa.0.0.copyload = load i64, ptr %18, align 4
  %.sroa.2.0..sroa_idx = getelementptr inbounds nuw i8, ptr %18, i64 8
  %.sroa.2.0.copyload = load i64, ptr %.sroa.2.0..sroa_idx, align 4
  call void @_ZN2cv9rectangleERKNS_17_InputOutputArrayENS_5Rect_IiEERKNS_7Scalar_IdEEiii(ptr noundef nonnull align 8 dereferenceable(24) %5, i64 %.sroa.0.0.copyload, i64 %.sroa.2.0.copyload, ptr noundef nonnull align 8 dereferenceable(32) %2, i32 noundef 2, i32 noundef 8, i32 noundef 0)
  call void @llvm.lifetime.end.p0(i64 24, ptr nonnull %5) #20
  %19 = add i32 %.0710, 1
  %20 = zext i32 %19 to i64
  %21 = load ptr, ptr %8, align 8, !tbaa !72
  %22 = load ptr, ptr %1, align 8, !tbaa !75
  %23 = ptrtoint ptr %21 to i64
  %24 = ptrtoint ptr %22 to i64
  %25 = sub i64 %23, %24
  %26 = sdiv exact i64 %25, 24
  %27 = icmp ugt i64 %26, %20
  br i1 %27, label %15, label %._crit_edge, !llvm.loop !88
}